target datalayout = "e-m:e-p270:32:32-p271:32:32-p272:64:64-i64:64-i128:128-f80:128-n8:16:32:64-S128"
target triple = "x86_64-pc-linux-gnu"

; Function Attrs: nounwind sspstrong uwtable
define hidden void @FLAC__window_bartlett_hann(ptr noundef %0, i32 noundef %1) #0 {
  %3 = alloca ptr, align 8
  %4 = alloca i32, align 4
  %5 = alloca i32, align 4
  %6 = alloca i32, align 4
  store ptr %0, ptr %3, align 8, !tbaa !3
  store i32 %1, ptr %4, align 4, !tbaa !8
  call void @llvm.lifetime.start.p0(i64 4, ptr %5) #4
  %7 = load i32, ptr %4, align 4, !tbaa !8
  %8 = sub nsw i32 %7, 1
  store i32 %8, ptr %5, align 4, !tbaa !8
  call void @llvm.lifetime.start.p0(i64 4, ptr %6) #4
  store i32 0, ptr %6, align 4, !tbaa !8
  br label %9

9:                                                ; preds = %36, %2
  %10 = load i32, ptr %6, align 4, !tbaa !8
  %11 = load i32, ptr %4, align 4, !tbaa !8
  %12 = icmp slt i32 %10, %11
  br i1 %12, label %13, label %39

13:                                               ; preds = %9
  %14 = load i32, ptr %6, align 4, !tbaa !8
  %15 = sitofp i32 %14 to float
  %16 = load i32, ptr %5, align 4, !tbaa !8
  %17 = sitofp i32 %16 to float
  %18 = fdiv reassoc nsz arcp float %15, %17
  %19 = fsub reassoc nsz arcp float %18, 5.000000e-01
  %20 = call reassoc nsz arcp float @llvm.fabs.f32(float %19)
  %21 = call reassoc nsz arcp float @llvm.fmuladd.f32(float 0xBFDEB851E0000000, float %20, float 0x3FE3D70A40000000)
  %22 = load i32, ptr %6, align 4, !tbaa !8
  %23 = sitofp i32 %22 to float
  %24 = load i32, ptr %5, align 4, !tbaa !8
  %25 = sitofp i32 %24 to float
  %26 = fdiv reassoc nsz arcp float %23, %25
  %27 = fpext reassoc nsz arcp float %26 to double
  %28 = fmul reassoc nsz arcp double 0x401921FB54442D18, %27
  %29 = fptrunc reassoc nsz arcp double %28 to float
  %30 = call reassoc nsz arcp float @cosf(float noundef %29) #4, !tbaa !8
  %31 = call reassoc nsz arcp float @llvm.fmuladd.f32(float 0xBFD851EB80000000, float %30, float %21)
  %32 = load ptr, ptr %3, align 8, !tbaa !3
  %33 = load i32, ptr %6, align 4, !tbaa !8
  %34 = sext i32 %33 to i64
  %35 = getelementptr inbounds float, ptr %32, i64 %34
  store float %31, ptr %35, align 4, !tbaa !10
  br label %36

36:                                               ; preds = %13
  %37 = load i32, ptr %6, align 4, !tbaa !8
  %38 = add nsw i32 %37, 1
  store i32 %38, ptr %6, align 4, !tbaa !8
  br label %9, !llvm.loop !17

39:                                               ; preds = %9
  call void @llvm.lifetime.end.p0(i64 4, ptr %6) #4
  call void @llvm.lifetime.end.p0(i64 4, ptr %5) #4
  ret void
}