; Function Attrs: nofree nounwind sspstrong memory(write) uwtable
define hidden void @FLAC__window_bartlett_hann(ptr noundef writeonly captures(none) %0, i32 noundef %1) local_unnamed_addr #1 {
  %3 = icmp sgt i32 %1, 0
  br i1 %3, label %.lr.ph, label %._crit_edge

.lr.ph:                                           ; preds = %2
  %4 = add nsw i32 %1, -1
  %5 = uitofp nneg i32 %4 to float
  %wide.trip.count = zext nneg i32 %1 to i64
  %6 = fdiv reassoc nsz arcp float 1.000000e+00, %5
  br label %7

7:                                                ; preds = %.lr.ph, %7
  %indvars.iv = phi i64 [ 0, %.lr.ph ], [ %indvars.iv.next, %7 ]
  %8 = trunc nuw nsw i64 %indvars.iv to i32
  %9 = uitofp nneg i32 %8 to float
  %10 = fmul reassoc nsz arcp float %9, %6
  %11 = fadd reassoc nsz arcp float %10, -5.000000e-01
  %12 = tail call reassoc nsz arcp float @llvm.fabs.f32(float %11)
  %13 = tail call reassoc nsz arcp float @llvm.fmuladd.f32(float %12, float 0xBFDEB851E0000000, float 0x3FE3D70A40000000)
  %14 = fpext reassoc nsz arcp float %10 to double
  %15 = fmul reassoc nsz arcp double %14, 0x401921FB54442D18
  %16 = fptrunc reassoc nsz arcp double %15 to float
  %17 = tail call reassoc nsz arcp float @cosf(float noundef %16) #6, !tbaa !12
  %18 = tail call reassoc nsz arcp float @llvm.fmuladd.f32(float %17, float 0xBFD851EB80000000, float %13)
  %19 = getelementptr inbounds nuw float, ptr %0, i64 %indvars.iv
  store float %18, ptr %19, align 4, !tbaa !3
  %indvars.iv.next = add nuw nsw i64 %indvars.iv, 1
  %exitcond.not = icmp eq i64 %indvars.iv.next, %wide.trip.count
  br i1 %exitcond.not, label %._crit_edge, label %7, !llvm.loop !14

._crit_edge:                                      ; preds = %7, %2
  ret void
}